target datalayout = "e-m:e-p270:32:32-p271:32:32-p272:64:64-i64:64-i128:128-f80:128-n8:16:32:64-S128"
target triple = "x86_64-pc-linux-gnu"

; Function Attrs: mustprogress uwtable
define noundef i32 @_Z21zmq_poll_check_items_P14zmq_pollitem_til(ptr noundef %0, i32 noundef %1, i64 noundef %2) #1 {
  %4 = alloca i32, align 4
  %5 = alloca ptr, align 8
  %6 = alloca i32, align 4
  %7 = alloca i64, align 8
  store ptr %0, ptr %5, align 8, !tbaa !47
  store i32 %1, ptr %6, align 4, !tbaa !8
  store i64 %2, ptr %7, align 8, !tbaa !13
  %8 = load i32, ptr %6, align 4, !tbaa !8
  %9 = icmp slt i32 %8, 0
  %10 = zext i1 %9 to i64
  %11 = call i64 @llvm.expect.i64(i64 %10, i64 0)
  %12 = icmp ne i64 %11, 0
  br i1 %12, label %13, label %15

13:                                               ; preds = %3
  %14 = call ptr @__errno_location() #19
  store i32 22, ptr %14, align 4, !tbaa !8
  store i32 -1, ptr %4, align 4
  br label %36

15:                                               ; preds = %3
  %16 = load i32, ptr %6, align 4, !tbaa !8
  %17 = icmp eq i32 %16, 0
  %18 = zext i1 %17 to i64
  %19 = call i64 @llvm.expect.i64(i64 %18, i64 0)
  %20 = icmp ne i64 %19, 0
  br i1 %20, label %21, label %30

21:                                               ; preds = %15
  %22 = load i64, ptr %7, align 8, !tbaa !13
  %23 = icmp eq i64 %22, 0
  br i1 %23, label %24, label %25

24:                                               ; preds = %21
  store i32 0, ptr %4, align 4
  br label %36

25:                                               ; preds = %21
  %26 = load i64, ptr %7, align 8, !tbaa !13
  %27 = mul nsw i64 %26, 1000
  %28 = trunc i64 %27 to i32
  %29 = call i32 @usleep(i32 noundef %28)
  store i32 %29, ptr %4, align 4
  br label %36

30:                                               ; preds = %15
  %31 = load ptr, ptr %5, align 8, !tbaa !47
  %32 = icmp ne ptr %31, null
  br i1 %32, label %35, label %33

33:                                               ; preds = %30
  %34 = call ptr @__errno_location() #19
  store i32 14, ptr %34, align 4, !tbaa !8
  store i32 -1, ptr %4, align 4
  br label %36

35:                                               ; preds = %30
  store i32 1, ptr %4, align 4
  br label %36

36:                                               ; preds = %35, %33, %25, %24, %13
  %37 = load i32, ptr %4, align 4
  ret i32 %37
}