; Function Attrs: mustprogress uwtable
define noundef i32 @_Z21zmq_poll_check_items_P14zmq_pollitem_til(ptr noundef readnone %0, i32 noundef %1, i64 noundef %2) local_unnamed_addr #1 {
  %4 = icmp slt i32 %1, 0
  br i1 %4, label %5, label %7, !prof !10

5:                                                ; preds = %3
  %6 = tail call ptr @__errno_location() #20
  store i32 22, ptr %6, align 4, !tbaa !3
  br label %18

7:                                                ; preds = %3
  %8 = icmp eq i32 %1, 0
  br i1 %8, label %9, label %15, !prof !10

9:                                                ; preds = %7
  %10 = icmp eq i64 %2, 0
  br i1 %10, label %18, label %11

11:                                               ; preds = %9
  %12 = trunc i64 %2 to i32
  %13 = mul i32 %12, 1000
  %14 = tail call i32 @usleep(i32 noundef %13)
  br label %18

15:                                               ; preds = %7
  %.not = icmp eq ptr %0, null
  br i1 %.not, label %16, label %18

16:                                               ; preds = %15
  %17 = tail call ptr @__errno_location() #20
  store i32 14, ptr %17, align 4, !tbaa !3
  br label %18

18:                                               ; preds = %15, %9, %16, %11, %5
  %.0 = phi i32 [ -1, %5 ], [ %14, %11 ], [ -1, %16 ], [ 0, %9 ], [ 1, %15 ]
  ret i32 %.0
}